target datalayout = "e-m:e-p270:32:32-p271:32:32-p272:64:64-i64:64-i128:128-f80:128-n8:16:32:64-S128"
target triple = "x86_64-pc-linux-gnu"

%struct.sljit_compiler = type { i32, i32, ptr, ptr, ptr, ptr, ptr, ptr, ptr, ptr, ptr, ptr, ptr, ptr, i32, i32, i32, i32, i32, i64, i64, i64, i32 }

; Function Attrs: nounwind uwtable
define internal i32 @emit_groupf(ptr noundef %0, i64 noundef %1, i32 noundef %2, i32 noundef %3, i64 noundef %4) #0 {
  %6 = alloca i32, align 4
  %7 = alloca ptr, align 8
  %8 = alloca i64, align 8
  %9 = alloca i32, align 4
  %10 = alloca i32, align 4
  %11 = alloca i64, align 8
  %12 = alloca ptr, align 8
  store ptr %0, ptr %7, align 8
  store i64 %1, ptr %8, align 8
  store i32 %2, ptr %9, align 4
  store i32 %3, ptr %10, align 4
  store i64 %4, ptr %11, align 8
  %13 = load ptr, ptr %7, align 8
  %14 = load i64, ptr %8, align 8
  %15 = and i64 %14, -256
  %16 = or i64 2, %15
  %17 = load i32, ptr %9, align 4
  %18 = load i32, ptr %10, align 4
  %19 = load i64, ptr %11, align 8
  %20 = call ptr @emit_x86_instruction(ptr noundef %13, i64 noundef %16, i32 noundef %17, i64 noundef 0, i32 noundef %18, i64 noundef %19)
  store ptr %20, ptr %12, align 8
  br label %21

21:                                               ; preds = %5
  %22 = load ptr, ptr %12, align 8
  %23 = icmp ne ptr %22, null
  %24 = xor i1 %23, true
  %25 = zext i1 %24 to i32
  %26 = sext i32 %25 to i64
  %27 = icmp ne i64 %26, 0
  br i1 %27, label %28, label %32

28:                                               ; preds = %21
  %29 = load ptr, ptr %7, align 8
  %30 = getelementptr inbounds %struct.sljit_compiler, ptr %29, i32 0, i32 0
  %31 = load i32, ptr %30, align 8
  store i32 %31, ptr %6, align 4
  br label %41

32:                                               ; preds = %21
  br label %33

33:                                               ; preds = %32
  %34 = load ptr, ptr %12, align 8
  %35 = getelementptr inbounds i8, ptr %34, i64 0
  store i8 15, ptr %35, align 1
  %36 = load i64, ptr %8, align 8
  %37 = and i64 %36, 255
  %38 = trunc i64 %37 to i8
  %39 = load ptr, ptr %12, align 8
  %40 = getelementptr inbounds i8, ptr %39, i64 1
  store i8 %38, ptr %40, align 1
  store i32 0, ptr %6, align 4
  br label %41

41:                                               ; preds = %33, %28
  %42 = load i32, ptr %6, align 4
  ret i32 %42
}

; Function Attrs: nounwind uwtable
define internal i32 @emit_mov_half(ptr noundef %0, i32 noundef %1, i32 noundef %2, i64 noundef %3, i32 noundef %4, i64 noundef %5) #0 {
  %7 = alloca i32, align 4
  %8 = alloca ptr, align 8
  %9 = alloca i32, align 4
  %10 = alloca i32, align 4
  %11 = alloca i64, align 8
  %12 = alloca i32, align 4
  %13 = alloca i64, align 8
  %14 = alloca ptr, align 8
  %15 = alloca i32, align 4
  store ptr %0, ptr %8, align 8
  store i32 %1, ptr %9, align 4
  store i32 %2, ptr %10, align 4
  store i64 %3, ptr %11, align 8
  store i32 %4, ptr %12, align 4
  store i64 %5, ptr %13, align 8
  %16 = load ptr, ptr %8, align 8
  %17 = getelementptr inbounds %struct.sljit_compiler, ptr %16, i32 0, i32 22
  store i32 0, ptr %17, align 8
  %18 = load i32, ptr %12, align 4
  %19 = icmp eq i32 %18, 127
  br i1 %19, label %20, label %62

20:                                               ; preds = %6
  %21 = load i32, ptr %10, align 4
  %22 = icmp slt i32 %21, 127
  br i1 %22, label %23, label %42

23:                                               ; preds = %20
  %24 = load ptr, ptr %8, align 8
  %25 = load i64, ptr %13, align 8
  %26 = load i32, ptr %10, align 4
  %27 = call ptr @emit_x86_instruction(ptr noundef %24, i64 noundef 1, i32 noundef 127, i64 noundef %25, i32 noundef %26, i64 noundef 0)
  store ptr %27, ptr %14, align 8
  br label %28

28:                                               ; preds = %23
  %29 = load ptr, ptr %14, align 8
  %30 = icmp ne ptr %29, null
  %31 = xor i1 %30, true
  %32 = zext i1 %31 to i32
  %33 = sext i32 %32 to i64
  %34 = icmp ne i64 %33, 0
  br i1 %34, label %35, label %39

35:                                               ; preds = %28
  %36 = load ptr, ptr %8, align 8
  %37 = getelementptr inbounds %struct.sljit_compiler, ptr %36, i32 0, i32 0
  %38 = load i32, ptr %37, align 8
  store i32 %38, ptr %7, align 4
  br label %122

39:                                               ; preds = %28
  br label %40

40:                                               ; preds = %39
  %41 = load ptr, ptr %14, align 8
  store i8 -57, ptr %41, align 1
  store i32 0, ptr %7, align 4
  br label %122

42:                                               ; preds = %20
  %43 = load ptr, ptr %8, align 8
  %44 = load i64, ptr %13, align 8
  %45 = load i32, ptr %10, align 4
  %46 = load i64, ptr %11, align 8
  %47 = call ptr @emit_x86_instruction(ptr noundef %43, i64 noundef 1665, i32 noundef 127, i64 noundef %44, i32 noundef %45, i64 noundef %46)
  store ptr %47, ptr %14, align 8
  br label %48

48:                                               ; preds = %42
  %49 = load ptr, ptr %14, align 8
  %50 = icmp ne ptr %49, null
  %51 = xor i1 %50, true
  %52 = zext i1 %51 to i32
  %53 = sext i32 %52 to i64
  %54 = icmp ne i64 %53, 0
  br i1 %54, label %55, label %59

55:                                               ; preds = %48
  %56 = load ptr, ptr %8, align 8
  %57 = getelementptr inbounds %struct.sljit_compiler, ptr %56, i32 0, i32 0
  %58 = load i32, ptr %57, align 8
  store i32 %58, ptr %7, align 4
  br label %122

59:                                               ; preds = %48
  br label %60

60:                                               ; preds = %59
  %61 = load ptr, ptr %14, align 8
  store i8 -57, ptr %61, align 1
  store i32 0, ptr %7, align 4
  br label %122

62:                                               ; preds = %6
  %63 = load i32, ptr %10, align 4
  %64 = icmp slt i32 %63, 127
  br i1 %64, label %65, label %67

65:                                               ; preds = %62
  %66 = load i32, ptr %10, align 4
  br label %68

67:                                               ; preds = %62
  br label %68

68:                                               ; preds = %67, %65
  %69 = phi i32 [ %66, %65 ], [ 15, %67 ]
  store i32 %69, ptr %15, align 4
  %70 = load i32, ptr %10, align 4
  %71 = and i32 %70, 128
  %72 = icmp ne i32 %71, 0
  br i1 %72, label %73, label %78

73:                                               ; preds = %68
  %74 = load i32, ptr %12, align 4
  %75 = icmp slt i32 %74, 127
  br i1 %75, label %76, label %78

76:                                               ; preds = %73
  %77 = load i32, ptr %12, align 4
  store i32 %77, ptr %15, align 4
  br label %97

78:                                               ; preds = %73, %68
  br label %79

79:                                               ; preds = %78
  %80 = load ptr, ptr %8, align 8
  %81 = load i32, ptr %9, align 4
  %82 = icmp ne i32 %81, 0
  %83 = select i1 %82, i32 191, i32 183
  %84 = sext i32 %83 to i64
  %85 = load i32, ptr %15, align 4
  %86 = load i32, ptr %12, align 4
  %87 = load i64, ptr %13, align 8
  %88 = call i32 @emit_groupf(ptr noundef %80, i64 noundef %84, i32 noundef %85, i32 noundef %86, i64 noundef %87)
  %89 = sext i32 %88 to i64
  %90 = icmp ne i64 %89, 0
  br i1 %90, label %91, label %95

91:                                               ; preds = %79
  %92 = load ptr, ptr %8, align 8
  %93 = getelementptr inbounds %struct.sljit_compiler, ptr %92, i32 0, i32 0
  %94 = load i32, ptr %93, align 8
  store i32 %94, ptr %7, align 4
  br label %122

95:                                               ; preds = %79
  br label %96

96:                                               ; preds = %95
  br label %97

97:                                               ; preds = %96, %76
  %98 = load i32, ptr %10, align 4
  %99 = and i32 %98, 128
  %100 = icmp ne i32 %99, 0
  br i1 %100, label %101, label %121

101:                                              ; preds = %97
  %102 = load ptr, ptr %8, align 8
  %103 = load i32, ptr %15, align 4
  %104 = load i32, ptr %10, align 4
  %105 = load i64, ptr %11, align 8
  %106 = call ptr @emit_x86_instruction(ptr noundef %102, i64 noundef 1537, i32 noundef %103, i64 noundef 0, i32 noundef %104, i64 noundef %105)
  store ptr %106, ptr %14, align 8
  br label %107

107:                                              ; preds = %101
  %108 = load ptr, ptr %14, align 8
  %109 = icmp ne ptr %108, null
  %110 = xor i1 %109, true
  %111 = zext i1 %110 to i32
  %112 = sext i32 %111 to i64
  %113 = icmp ne i64 %112, 0
  br i1 %113, label %114, label %118

114:                                              ; preds = %107
  %115 = load ptr, ptr %8, align 8
  %116 = getelementptr inbounds %struct.sljit_compiler, ptr %115, i32 0, i32 0
  %117 = load i32, ptr %116, align 8
  store i32 %117, ptr %7, align 4
  br label %122

118:                                              ; preds = %107
  br label %119

119:                                              ; preds = %118
  %120 = load ptr, ptr %14, align 8
  store i8 -119, ptr %120, align 1
  br label %121

121:                                              ; preds = %119, %97
  store i32 0, ptr %7, align 4
  br label %122

122:                                              ; preds = %121, %114, %91, %60, %55, %40, %35
  %123 = load i32, ptr %7, align 4
  ret i32 %123
}