; Function Attrs: nounwind uwtable
define internal fastcc i32 @emit_mov_half(ptr nocapture noundef %0, i32 noundef %1, i32 noundef %2, i64 noundef %3, i32 noundef %4, i64 noundef %5) unnamed_addr #0 {
  %7 = getelementptr inbounds i8, ptr %0, i64 152
  store i32 0, ptr %7, align 8
  %8 = icmp eq i32 %4, 127
  br i1 %8, label %9, label %21

9:                                                ; preds = %6
  %10 = icmp slt i32 %2, 127
  br i1 %10, label %11, label %16

11:                                               ; preds = %9
  %12 = tail call fastcc ptr @emit_x86_instruction(ptr noundef nonnull %0, i64 noundef 1, i32 noundef 127, i64 noundef %5, i32 noundef %2, i64 noundef 0)
  %.not42 = icmp eq ptr %12, null
  br i1 %.not42, label %13, label %15

13:                                               ; preds = %11
  %14 = load i32, ptr %0, align 8
  br label %36

15:                                               ; preds = %11
  store i8 -57, ptr %12, align 1
  br label %36

16:                                               ; preds = %9
  %17 = tail call fastcc ptr @emit_x86_instruction(ptr noundef nonnull %0, i64 noundef 1665, i32 noundef 127, i64 noundef %5, i32 noundef %2, i64 noundef %3)
  %.not41 = icmp eq ptr %17, null
  br i1 %.not41, label %18, label %20

18:                                               ; preds = %16
  %19 = load i32, ptr %0, align 8
  br label %36

20:                                               ; preds = %16
  store i8 -57, ptr %17, align 1
  br label %36

21:                                               ; preds = %6
  %22 = and i32 %2, 128
  %23 = icmp ne i32 %22, 0
  %24 = icmp slt i32 %4, 127
  %or.cond = and i1 %23, %24
  br i1 %or.cond, label %.thread, label %25

25:                                               ; preds = %21
  %26 = icmp slt i32 %2, 127
  %27 = select i1 %26, i32 %2, i32 15
  %28 = tail call fastcc ptr @emit_x86_instruction(ptr noundef nonnull %0, i64 noundef 2, i32 noundef %27, i64 noundef 0, i32 noundef %4, i64 noundef %5)
  %.not.i = icmp eq ptr %28, null
  br i1 %.not.i, label %emit_groupf.exit, label %emit_groupf.exit.thread

emit_groupf.exit.thread:                          ; preds = %25
  %.not = icmp eq i32 %1, 0
  store i8 15, ptr %28, align 1
  %29 = select i1 %.not, i8 -73, i8 -65
  %30 = getelementptr inbounds i8, ptr %28, i64 1
  store i8 %29, ptr %30, align 1
  br i1 %23, label %.thread, label %36

emit_groupf.exit:                                 ; preds = %25
  %31 = load i32, ptr %0, align 8
  %.not39 = icmp eq i32 %31, 0
  %brmerge.not = and i1 %.not39, %23
  br i1 %brmerge.not, label %.thread, label %36

.thread:                                          ; preds = %emit_groupf.exit, %21, %emit_groupf.exit.thread
  %.046 = phi i32 [ %27, %emit_groupf.exit.thread ], [ %4, %21 ], [ %27, %emit_groupf.exit ]
  %32 = tail call fastcc ptr @emit_x86_instruction(ptr noundef nonnull %0, i64 noundef 1537, i32 noundef %.046, i64 noundef 0, i32 noundef %2, i64 noundef %3)
  %.not40 = icmp eq ptr %32, null
  br i1 %.not40, label %33, label %35

33:                                               ; preds = %.thread
  %34 = load i32, ptr %0, align 8
  br label %36

35:                                               ; preds = %.thread
  store i8 -119, ptr %32, align 1
  br label %36

36:                                               ; preds = %emit_groupf.exit, %emit_groupf.exit.thread, %35, %33, %20, %18, %15, %13
  %.036 = phi i32 [ %14, %13 ], [ 0, %15 ], [ %19, %18 ], [ 0, %20 ], [ %34, %33 ], [ 0, %35 ], [ 0, %emit_groupf.exit.thread ], [ %31, %emit_groupf.exit ]
  ret i32 %.036
}